; Function Attrs: mustprogress nounwind uwtable
define internal void @"_ZNSt17_Function_handlerIFvRjEZN3spv10spirvbin_t7dceVarsEvE3$_1E9_M_invokeERKSt9_Any_dataS0_"(ptr nocapture noundef nonnull readonly align 8 dereferenceable(16) %0, ptr noundef nonnull align 4 dereferenceable(4) %1) #0 align 2 {
  %3 = load ptr, ptr %0, align 8
  %4 = tail call noundef nonnull align 4 dereferenceable(4) ptr @_ZNSt8__detail9_Map_baseIjSt4pairIKjiESaIS3_ENS_10_Select1stESt8equal_toIjESt4hashIjENS_18_Mod_range_hashingENS_20_Default_ranged_hashENS_20_Prime_rehash_policyENS_17_Hashtable_traitsILb0ELb0ELb1EEELb1EEixERS2_(ptr noundef nonnull align 1 dereferenceable(1) %3, ptr noundef nonnull align 4 dereferenceable(4) %1)
  %5 = load i32, ptr %4, align 4
  %.not.i.i.i = icmp eq i32 %5, 0
  br i1 %.not.i.i.i, label %"_ZSt10__invoke_rIvRZN3spv10spirvbin_t7dceVarsEvE3$_1JRjEENSt9enable_ifIX16is_invocable_r_vIT_T0_DpT1_EES6_E4typeEOS7_DpOS8_.exit", label %6

6:                                                ; preds = %2
  %7 = load ptr, ptr %0, align 8
  %8 = tail call noundef nonnull align 4 dereferenceable(4) ptr @_ZNSt8__detail9_Map_baseIjSt4pairIKjiESaIS3_ENS_10_Select1stESt8equal_toIjESt4hashIjENS_18_Mod_range_hashingENS_20_Default_ranged_hashENS_20_Prime_rehash_policyENS_17_Hashtable_traitsILb0ELb0ELb1EEELb1EEixERS2_(ptr noundef nonnull align 1 dereferenceable(1) %7, ptr noundef nonnull align 4 dereferenceable(4) %1)
  %9 = load i32, ptr %8, align 4
  %10 = add nsw i32 %9, 1
  store i32 %10, ptr %8, align 4
  br label %"_ZSt10__invoke_rIvRZN3spv10spirvbin_t7dceVarsEvE3$_1JRjEENSt9enable_ifIX16is_invocable_r_vIT_T0_DpT1_EES6_E4typeEOS7_DpOS8_.exit"

"_ZSt10__invoke_rIvRZN3spv10spirvbin_t7dceVarsEvE3$_1JRjEENSt9enable_ifIX16is_invocable_r_vIT_T0_DpT1_EES6_E4typeEOS7_DpOS8_.exit": ; preds = %2, %6
  ret void
}